target datalayout = "e-m:e-p270:32:32-p271:32:32-p272:64:64-i64:64-i128:128-f80:128-n8:16:32:64-S128"
target triple = "x86_64-pc-linux-gnu"

%struct.jit_State = type { %struct.GCtrace, ptr, ptr, ptr, ptr, ptr, ptr, i32, i32, i32, i8, i8, %struct.IRType1, i8, %struct.FoldState, ptr, i32, i32, i32, i32, i32, i32, i32, [1 x i32], [5 x %union.TValue], [3 x %union.TValue], ptr, i32, i32, i32, i32, ptr, ptr, i32, i32, i8, ptr, i32, i32, i16, [101 x i16], [258 x i32], [15 x i32], [16 x ptr], [64 x %struct.HotPenalty], i32, [16 x %struct.BPropEntry], i32, %struct.ScEvEntry, ptr, i32, i32, i32, ptr, i32, i32, ptr, ptr, ptr, i64, i64, %union.TValue, ptr, i32, i32 }
%struct.GCtrace = type { %struct.GCRef, i8, i8, i16, i32, i32, %struct.GCRef, ptr, i32, i32, ptr, ptr, %struct.GCRef, %struct.MRef, i32, i32, ptr, i32, i16, i16, i16, i16, i16, i16, i16, i8, i8, i8, i8 }
%struct.GCRef = type { i64 }
%struct.MRef = type { i64 }
%struct.IRType1 = type { i8 }
%struct.FoldState = type { %union.IRIns, [2 x %union.IRIns], [2 x %union.IRIns] }
%union.IRIns = type { %struct.GCRef }
%struct.HotPenalty = type { %struct.MRef, i16, i16 }
%struct.BPropEntry = type { i16, i16, i32 }
%struct.ScEvEntry = type { %struct.MRef, i16, i16, i16, i16, %struct.IRType1, i8 }
%union.TValue = type { i64 }
%struct.anon.0 = type { i32, %struct.IRType1, i8, i8, i8 }

; Function Attrs: nounwind uwtable
define internal i32 @fold_kfold_int64comp(ptr noundef %0) #0 {
  %2 = alloca i32, align 4
  %3 = alloca ptr, align 8
  %4 = alloca i64, align 8
  %5 = alloca i64, align 8
  %6 = alloca i32, align 4
  store ptr %0, ptr %3, align 8, !tbaa !4
  call void @llvm.lifetime.start.p0(i64 8, ptr %4) #8
  %7 = load ptr, ptr %3, align 8, !tbaa !4
  %8 = getelementptr inbounds nuw %struct.jit_State, ptr %7, i32 0, i32 14
  %9 = getelementptr inbounds nuw %struct.FoldState, ptr %8, i32 0, i32 1
  %10 = getelementptr inbounds [2 x %union.IRIns], ptr %9, i64 0, i64 1
  %11 = load i64, ptr %10, align 8, !tbaa !29
  store i64 %11, ptr %4, align 8, !tbaa !52
  call void @llvm.lifetime.start.p0(i64 8, ptr %5) #8
  %12 = load ptr, ptr %3, align 8, !tbaa !4
  %13 = getelementptr inbounds nuw %struct.jit_State, ptr %12, i32 0, i32 14
  %14 = getelementptr inbounds nuw %struct.FoldState, ptr %13, i32 0, i32 2
  %15 = getelementptr inbounds [2 x %union.IRIns], ptr %14, i64 0, i64 1
  %16 = load i64, ptr %15, align 8, !tbaa !29
  store i64 %16, ptr %5, align 8, !tbaa !52
  %17 = load ptr, ptr %3, align 8, !tbaa !4
  %18 = getelementptr inbounds nuw %struct.jit_State, ptr %17, i32 0, i32 14
  %19 = getelementptr inbounds nuw %struct.FoldState, ptr %18, i32 0, i32 0
  %20 = getelementptr inbounds nuw %struct.anon.0, ptr %19, i32 0, i32 2
  %21 = load i8, ptr %20, align 1, !tbaa !29
  %22 = zext i8 %21 to i32
  switch i32 %22, label %71 [
    i32 0, label %23
    i32 1, label %29
    i32 2, label %35
    i32 3, label %41
    i32 4, label %47
    i32 5, label %53
    i32 6, label %59
    i32 7, label %65
  ]

23:                                               ; preds = %1
  %24 = load i64, ptr %4, align 8, !tbaa !52
  %25 = load i64, ptr %5, align 8, !tbaa !52
  %26 = icmp slt i64 %24, %25
  %27 = zext i1 %26 to i32
  %28 = add i32 3, %27
  store i32 %28, ptr %2, align 4
  store i32 1, ptr %6, align 4
  br label %72

29:                                               ; preds = %1
  %30 = load i64, ptr %4, align 8, !tbaa !52
  %31 = load i64, ptr %5, align 8, !tbaa !52
  %32 = icmp sge i64 %30, %31
  %33 = zext i1 %32 to i32
  %34 = add i32 3, %33
  store i32 %34, ptr %2, align 4
  store i32 1, ptr %6, align 4
  br label %72

35:                                               ; preds = %1
  %36 = load i64, ptr %4, align 8, !tbaa !52
  %37 = load i64, ptr %5, align 8, !tbaa !52
  %38 = icmp sle i64 %36, %37
  %39 = zext i1 %38 to i32
  %40 = add i32 3, %39
  store i32 %40, ptr %2, align 4
  store i32 1, ptr %6, align 4
  br label %72

41:                                               ; preds = %1
  %42 = load i64, ptr %4, align 8, !tbaa !52
  %43 = load i64, ptr %5, align 8, !tbaa !52
  %44 = icmp sgt i64 %42, %43
  %45 = zext i1 %44 to i32
  %46 = add i32 3, %45
  store i32 %46, ptr %2, align 4
  store i32 1, ptr %6, align 4
  br label %72

47:                                               ; preds = %1
  %48 = load i64, ptr %4, align 8, !tbaa !52
  %49 = load i64, ptr %5, align 8, !tbaa !52
  %50 = icmp ult i64 %48, %49
  %51 = zext i1 %50 to i32
  %52 = add i32 3, %51
  store i32 %52, ptr %2, align 4
  store i32 1, ptr %6, align 4
  br label %72

53:                                               ; preds = %1
  %54 = load i64, ptr %4, align 8, !tbaa !52
  %55 = load i64, ptr %5, align 8, !tbaa !52
  %56 = icmp uge i64 %54, %55
  %57 = zext i1 %56 to i32
  %58 = add i32 3, %57
  store i32 %58, ptr %2, align 4
  store i32 1, ptr %6, align 4
  br label %72

59:                                               ; preds = %1
  %60 = load i64, ptr %4, align 8, !tbaa !52
  %61 = load i64, ptr %5, align 8, !tbaa !52
  %62 = icmp ule i64 %60, %61
  %63 = zext i1 %62 to i32
  %64 = add i32 3, %63
  store i32 %64, ptr %2, align 4
  store i32 1, ptr %6, align 4
  br label %72

65:                                               ; preds = %1
  %66 = load i64, ptr %4, align 8, !tbaa !52
  %67 = load i64, ptr %5, align 8, !tbaa !52
  %68 = icmp ugt i64 %66, %67
  %69 = zext i1 %68 to i32
  %70 = add i32 3, %69
  store i32 %70, ptr %2, align 4
  store i32 1, ptr %6, align 4
  br label %72

71:                                               ; preds = %1
  store i32 3, ptr %2, align 4
  store i32 1, ptr %6, align 4
  br label %72

72:                                               ; preds = %71, %65, %59, %53, %47, %41, %35, %29, %23
  call void @llvm.lifetime.end.p0(i64 8, ptr %5) #8
  call void @llvm.lifetime.end.p0(i64 8, ptr %4) #8
  %73 = load i32, ptr %2, align 4
  ret i32 %73
}