; Function Attrs: mustprogress nofree norecurse nosync nounwind willreturn memory(argmem: read) uwtable
define internal range(i32 3, 5) i32 @fold_kfold_int64comp(ptr noundef readonly captures(none) %0) #6 {
  %2 = getelementptr inbounds nuw i8, ptr %0, i64 200
  %3 = load i64, ptr %2, align 8, !tbaa !28
  %4 = getelementptr inbounds nuw i8, ptr %0, i64 216
  %5 = load i64, ptr %4, align 8, !tbaa !28
  %6 = getelementptr inbounds nuw i8, ptr %0, i64 189
  %7 = load i8, ptr %6, align 1, !tbaa !28
  switch i8 %7, label %28 [
    i8 0, label %8
    i8 1, label %11
    i8 2, label %13
    i8 3, label %15
    i8 4, label %18
    i8 5, label %21
    i8 6, label %23
    i8 7, label %25
  ]

8:                                                ; preds = %1
  %9 = icmp slt i64 %3, %5
  %10 = select i1 %9, i32 4, i32 3
  br label %28

11:                                               ; preds = %1
  %.not21 = icmp slt i64 %3, %5
  %12 = select i1 %.not21, i32 3, i32 4
  br label %28

13:                                               ; preds = %1
  %.not20 = icmp sgt i64 %3, %5
  %14 = select i1 %.not20, i32 3, i32 4
  br label %28

15:                                               ; preds = %1
  %16 = icmp sgt i64 %3, %5
  %17 = select i1 %16, i32 4, i32 3
  br label %28

18:                                               ; preds = %1
  %19 = icmp ult i64 %3, %5
  %20 = select i1 %19, i32 4, i32 3
  br label %28

21:                                               ; preds = %1
  %.not19 = icmp ult i64 %3, %5
  %22 = select i1 %.not19, i32 3, i32 4
  br label %28

23:                                               ; preds = %1
  %.not = icmp ugt i64 %3, %5
  %24 = select i1 %.not, i32 3, i32 4
  br label %28

25:                                               ; preds = %1
  %26 = icmp ugt i64 %3, %5
  %27 = select i1 %26, i32 4, i32 3
  br label %28

28:                                               ; preds = %1, %25, %23, %21, %18, %15, %13, %11, %8
  %.0 = phi i32 [ %27, %25 ], [ %24, %23 ], [ %22, %21 ], [ %20, %18 ], [ %17, %15 ], [ %14, %13 ], [ %12, %11 ], [ %10, %8 ], [ 3, %1 ]
  ret i32 %.0
}